target datalayout = "e-m:e-p270:32:32-p271:32:32-p272:64:64-i64:64-i128:128-f80:128-n8:16:32:64-S128"
target triple = "x86_64-pc-linux-gnu"

; Function Attrs: mustprogress nounwind uwtable
define noundef zeroext i8 @_ZN5arrow8internal12ReverseUint8Eh(i8 noundef zeroext %0) #3 {
  %2 = alloca i8, align 1
  store i8 %0, ptr %2, align 1, !tbaa !32
  %3 = load i8, ptr %2, align 1, !tbaa !32
  %4 = zext i8 %3 to i32
  %5 = and i32 %4, 240
  %6 = ashr i32 %5, 4
  %7 = load i8, ptr %2, align 1, !tbaa !32
  %8 = zext i8 %7 to i32
  %9 = and i32 %8, 15
  %10 = shl i32 %9, 4
  %11 = or i32 %6, %10
  %12 = trunc i32 %11 to i8
  store i8 %12, ptr %2, align 1, !tbaa !32
  %13 = load i8, ptr %2, align 1, !tbaa !32
  %14 = zext i8 %13 to i32
  %15 = and i32 %14, 204
  %16 = ashr i32 %15, 2
  %17 = load i8, ptr %2, align 1, !tbaa !32
  %18 = zext i8 %17 to i32
  %19 = and i32 %18, 51
  %20 = shl i32 %19, 2
  %21 = or i32 %16, %20
  %22 = trunc i32 %21 to i8
  store i8 %22, ptr %2, align 1, !tbaa !32
  %23 = load i8, ptr %2, align 1, !tbaa !32
  %24 = zext i8 %23 to i32
  %25 = and i32 %24, 170
  %26 = ashr i32 %25, 1
  %27 = load i8, ptr %2, align 1, !tbaa !32
  %28 = zext i8 %27 to i32
  %29 = and i32 %28, 85
  %30 = shl i32 %29, 1
  %31 = or i32 %26, %30
  %32 = trunc i32 %31 to i8
  store i8 %32, ptr %2, align 1, !tbaa !32
  %33 = load i8, ptr %2, align 1, !tbaa !32
  ret i8 %33
}

; Function Attrs: mustprogress nounwind uwtable
define noundef zeroext i8 @_ZN5arrow8internal16GetReversedBlockEhhh(i8 noundef zeroext %0, i8 noundef zeroext %1, i8 noundef zeroext %2) #3 {
  %4 = alloca i8, align 1
  %5 = alloca i8, align 1
  %6 = alloca i8, align 1
  store i8 %0, ptr %4, align 1, !tbaa !32
  store i8 %1, ptr %5, align 1, !tbaa !32
  store i8 %2, ptr %6, align 1, !tbaa !32
  %7 = load i8, ptr %5, align 1, !tbaa !32
  %8 = zext i8 %7 to i32
  %9 = shl i32 %8, 8
  %10 = load i8, ptr %4, align 1, !tbaa !32
  %11 = zext i8 %10 to i32
  %12 = add nsw i32 %9, %11
  %13 = load i8, ptr %6, align 1, !tbaa !32
  %14 = zext i8 %13 to i32
  %15 = ashr i32 %12, %14
  %16 = trunc i32 %15 to i8
  %17 = call noundef zeroext i8 @_ZN5arrow8internal12ReverseUint8Eh(i8 noundef zeroext %16)
  ret i8 %17
}