; Function Attrs: mustprogress nofree norecurse nosync nounwind willreturn memory(none) uwtable
define noundef zeroext i8 @_ZN5arrow8internal16GetReversedBlockEhhh(i8 noundef zeroext %0, i8 noundef zeroext %1, i8 noundef zeroext %2) local_unnamed_addr #4 {
  %4 = zext i8 %1 to i32
  %5 = shl nuw nsw i32 %4, 8
  %6 = zext i8 %0 to i32
  %7 = or disjoint i32 %5, %6
  %8 = zext nneg i8 %2 to i32
  %9 = lshr i32 %7, %8
  %10 = trunc i32 %9 to i8
  %rev.i = tail call noundef i8 @llvm.bitreverse.i8(i8 %10)
  ret i8 %rev.i
}